target datalayout = "e-m:e-p270:32:32-p271:32:32-p272:64:64-i64:64-i128:128-f80:128-n8:16:32:64-S128"
target triple = "x86_64-unknown-linux-gnu"

%struct.TPMPassthruState = type { %struct.TPMBackend, ptr, ptr, i32, i8, i8, i32, i32, i64 }
%struct.TPMBackend = type { %struct.Object, ptr, i8, i8, ptr, ptr, %struct.anon }
%struct.Object = type { ptr, ptr, ptr, i32, ptr }
%struct.anon = type { ptr, ptr }

@.str = private unnamed_addr constant [16 x i8] c"tpm-passthrough\00", align 1
@.str.2 = private unnamed_addr constant [39 x i8] c"../qemu/backends/tpm/tpm_passthrough.c\00", align 1
@__func__.TPM_PASSTHROUGH = private unnamed_addr constant [16 x i8] c"TPM_PASSTHROUGH\00", align 1
@.str.3 = private unnamed_addr constant [2 x i8] c"-\00", align 1
@.str.4 = private unnamed_addr constant [33 x i8] c"Canceling TPM command failed: %s\00", align 1
@.str.5 = private unnamed_addr constant [64 x i8] c"Cannot cancel TPM command due to missing TPM sysfs cancel entry\00", align 1

; Function Attrs: nounwind sspstrong uwtable
define internal ptr @TPM_PASSTHROUGH(ptr noundef %obj) #0 {
entry:
  %obj.addr = alloca ptr, align 8
  store ptr %obj, ptr %obj.addr, align 8
  %0 = load ptr, ptr %obj.addr, align 8
  %call = call ptr @object_dynamic_cast_assert(ptr noundef %0, ptr noundef @.str, ptr noundef @.str.2, i32 noundef 38, ptr noundef @__func__.TPM_PASSTHROUGH)
  ret ptr %call
}

; Function Attrs: nounwind sspstrong uwtable
define internal void @tpm_passthrough_cancel_cmd(ptr noundef %tb) #0 {
entry:
  %tb.addr = alloca ptr, align 8
  %tpm_pt = alloca ptr, align 8
  %n = alloca i32, align 4
  store ptr %tb, ptr %tb.addr, align 8
  %0 = load ptr, ptr %tb.addr, align 8
  %call = call ptr @TPM_PASSTHROUGH(ptr noundef %0)
  store ptr %call, ptr %tpm_pt, align 8
  %1 = load ptr, ptr %tpm_pt, align 8
  %tpm_executing = getelementptr inbounds %struct.TPMPassthruState, ptr %1, i32 0, i32 4
  %2 = load i8, ptr %tpm_executing, align 4
  %tobool = trunc i8 %2 to i1
  br i1 %tobool, label %if.then, label %if.end10

if.then:                                          ; preds = %entry
  %3 = load ptr, ptr %tpm_pt, align 8
  %cancel_fd = getelementptr inbounds %struct.TPMPassthruState, ptr %3, i32 0, i32 6
  %4 = load i32, ptr %cancel_fd, align 8
  %cmp = icmp sge i32 %4, 0
  br i1 %cmp, label %if.then1, label %if.else

if.then1:                                         ; preds = %if.then
  %5 = load ptr, ptr %tpm_pt, align 8
  %tpm_op_canceled = getelementptr inbounds %struct.TPMPassthruState, ptr %5, i32 0, i32 5
  store i8 1, ptr %tpm_op_canceled, align 1
  %6 = load ptr, ptr %tpm_pt, align 8
  %cancel_fd2 = getelementptr inbounds %struct.TPMPassthruState, ptr %6, i32 0, i32 6
  %7 = load i32, ptr %cancel_fd2, align 8
  %call3 = call i64 @write(i32 noundef %7, ptr noundef @.str.3, i64 noundef 1)
  %conv = trunc i64 %call3 to i32
  store i32 %conv, ptr %n, align 4
  %8 = load i32, ptr %n, align 4
  %cmp4 = icmp ne i32 %8, 1
  br i1 %cmp4, label %if.then6, label %if.end

if.then6:                                         ; preds = %if.then1
  %call7 = call ptr @__errno_location() #9
  %9 = load i32, ptr %call7, align 4
  %call8 = call ptr @strerror(i32 noundef %9) #10
  call void (ptr, ...) @error_report(ptr noundef @.str.4, ptr noundef %call8)
  br label %if.end

if.end:                                           ; preds = %if.then6, %if.then1
  br label %if.end9

if.else:                                          ; preds = %if.then
  call void (ptr, ...) @error_report(ptr noundef @.str.5)
  br label %if.end9

if.end9:                                          ; preds = %if.else, %if.end
  br label %if.end10

if.end10:                                         ; preds = %if.end9, %entry
  ret void
}