; Function Attrs: nounwind sspstrong uwtable
define internal void @tpm_passthrough_cancel_cmd(ptr noundef %tb) #0 {
entry:
  %call.i = tail call ptr @object_dynamic_cast_assert(ptr noundef %tb, ptr noundef nonnull @.str, ptr noundef nonnull @.str.2, i32 noundef 38, ptr noundef nonnull @__func__.TPM_PASSTHROUGH) #11
  %tpm_executing = getelementptr inbounds nuw i8, ptr %call.i, i64 108
  %0 = load i8, ptr %tpm_executing, align 4
  %tobool = trunc i8 %0 to i1
  br i1 %tobool, label %if.then, label %if.end10

if.then:                                          ; preds = %entry
  %cancel_fd = getelementptr inbounds nuw i8, ptr %call.i, i64 112
  %1 = load i32, ptr %cancel_fd, align 8
  %cmp = icmp sgt i32 %1, -1
  br i1 %cmp, label %if.then1, label %if.else

if.then1:                                         ; preds = %if.then
  %tpm_op_canceled = getelementptr inbounds nuw i8, ptr %call.i, i64 109
  store i8 1, ptr %tpm_op_canceled, align 1
  %call3 = tail call i64 @write(i32 noundef %1, ptr noundef nonnull @.str.3, i64 noundef 1) #11
  %2 = and i64 %call3, 4294967295
  %cmp4.not = icmp eq i64 %2, 1
  br i1 %cmp4.not, label %if.end10, label %if.then6

if.then6:                                         ; preds = %if.then1
  %call7 = tail call ptr @__errno_location() #13
  %3 = load i32, ptr %call7, align 4
  %call8 = tail call ptr @strerror(i32 noundef %3) #11
  tail call void (ptr, ...) @error_report(ptr noundef nonnull @.str.4, ptr noundef %call8) #11
  br label %if.end10

if.else:                                          ; preds = %if.then
  tail call void (ptr, ...) @error_report(ptr noundef nonnull @.str.5) #11
  br label %if.end10

if.end10:                                         ; preds = %if.else, %if.then6, %if.then1, %entry
  ret void
}